target datalayout = "e-m:e-p270:32:32-p271:32:32-p272:64:64-i64:64-i128:128-f80:128-n8:16:32:64-S128"
target triple = "x86_64-unknown-linux-gnu"

%struct.QObject = type { %struct.QObjectBase_ }
%struct.QObjectBase_ = type { i32, i64 }
%struct.QDict = type { %struct.QObjectBase_, i64, [512 x %struct.anon] }
%struct.anon = type { ptr }
%struct.q_obj_DEVICE_UNPLUG_GUEST_ERROR_arg = type { ptr, ptr }

@error_abort = external global ptr, align 8
@.str.1 = private unnamed_addr constant [5 x i8] c"data\00", align 1
@.str.2 = private unnamed_addr constant [26 x i8] c"DEVICE_UNPLUG_GUEST_ERROR\00", align 1
@.str.3 = private unnamed_addr constant [59 x i8] c"QTYPE_NONE < obj->base.type && obj->base.type < QTYPE__MAX\00", align 1
@.str.4 = private unnamed_addr constant [105 x i8] c"/home/dtcxzyw/WorkSpace/Projects/compilers/llvm-opt-benchmark/bench/qemu/qemu/include/qapi/qmp/qobject.h\00", align 1
@__PRETTY_FUNCTION__.qobject_type = private unnamed_addr constant [36 x i8] c"QType qobject_type(const QObject *)\00", align 1
@.str.5 = private unnamed_addr constant [25 x i8] c"!obj || obj->base.refcnt\00", align 1
@__PRETTY_FUNCTION__.qobject_unref_impl = private unnamed_addr constant [35 x i8] c"void qobject_unref_impl(QObject *)\00", align 1

; Function Attrs: nounwind sspstrong uwtable
define internal i32 @qobject_type(ptr noundef %obj) #0 {
entry:
  %obj.addr = alloca ptr, align 8
  store ptr %obj, ptr %obj.addr, align 8
  %0 = load ptr, ptr %obj.addr, align 8
  %base = getelementptr inbounds %struct.QObject, ptr %0, i32 0, i32 0
  %type = getelementptr inbounds %struct.QObjectBase_, ptr %base, i32 0, i32 0
  %1 = load i32, ptr %type, align 8
  %cmp = icmp ult i32 0, %1
  br i1 %cmp, label %land.lhs.true, label %if.else

land.lhs.true:                                    ; preds = %entry
  %2 = load ptr, ptr %obj.addr, align 8
  %base1 = getelementptr inbounds %struct.QObject, ptr %2, i32 0, i32 0
  %type2 = getelementptr inbounds %struct.QObjectBase_, ptr %base1, i32 0, i32 0
  %3 = load i32, ptr %type2, align 8
  %cmp3 = icmp ult i32 %3, 7
  br i1 %cmp3, label %if.then, label %if.else

if.then:                                          ; preds = %land.lhs.true
  br label %if.end

if.else:                                          ; preds = %land.lhs.true, %entry
  call void @__assert_fail(ptr noundef @.str.3, ptr noundef @.str.4, i32 noundef 126, ptr noundef @__PRETTY_FUNCTION__.qobject_type) #3
  unreachable

if.end:                                           ; preds = %if.then
  %4 = load ptr, ptr %obj.addr, align 8
  %base4 = getelementptr inbounds %struct.QObject, ptr %4, i32 0, i32 0
  %type5 = getelementptr inbounds %struct.QObjectBase_, ptr %base4, i32 0, i32 0
  %5 = load i32, ptr %type5, align 8
  ret i32 %5
}

; Function Attrs: nounwind sspstrong uwtable
define internal void @qobject_unref_impl(ptr noundef %obj) #0 {
entry:
  %obj.addr = alloca ptr, align 8
  store ptr %obj, ptr %obj.addr, align 8
  %0 = load ptr, ptr %obj.addr, align 8
  %tobool = icmp ne ptr %0, null
  br i1 %tobool, label %lor.lhs.false, label %if.then

lor.lhs.false:                                    ; preds = %entry
  %1 = load ptr, ptr %obj.addr, align 8
  %base = getelementptr inbounds %struct.QObject, ptr %1, i32 0, i32 0
  %refcnt = getelementptr inbounds %struct.QObjectBase_, ptr %base, i32 0, i32 1
  %2 = load i64, ptr %refcnt, align 8
  %tobool1 = icmp ne i64 %2, 0
  br i1 %tobool1, label %if.then, label %if.else

if.then:                                          ; preds = %lor.lhs.false, %entry
  br label %if.end

if.else:                                          ; preds = %lor.lhs.false
  call void @__assert_fail(ptr noundef @.str.5, ptr noundef @.str.4, i32 noundef 97, ptr noundef @__PRETTY_FUNCTION__.qobject_unref_impl) #3
  unreachable

if.end:                                           ; preds = %if.then
  %3 = load ptr, ptr %obj.addr, align 8
  %tobool2 = icmp ne ptr %3, null
  br i1 %tobool2, label %land.lhs.true, label %if.end6

land.lhs.true:                                    ; preds = %if.end
  %4 = load ptr, ptr %obj.addr, align 8
  %base3 = getelementptr inbounds %struct.QObject, ptr %4, i32 0, i32 0
  %refcnt4 = getelementptr inbounds %struct.QObjectBase_, ptr %base3, i32 0, i32 1
  %5 = load i64, ptr %refcnt4, align 8
  %dec = add i64 %5, -1
  store i64 %dec, ptr %refcnt4, align 8
  %cmp = icmp eq i64 %dec, 0
  br i1 %cmp, label %if.then5, label %if.end6

if.then5:                                         ; preds = %land.lhs.true
  %6 = load ptr, ptr %obj.addr, align 8
  call void @qobject_destroy(ptr noundef %6)
  br label %if.end6

if.end6:                                          ; preds = %if.then5, %land.lhs.true, %if.end
  ret void
}

; Function Attrs: nounwind sspstrong uwtable
define internal ptr @qobject_check_type(ptr noundef %obj, i32 noundef %type) #0 {
entry:
  %retval = alloca ptr, align 8
  %obj.addr = alloca ptr, align 8
  %type.addr = alloca i32, align 4
  store ptr %obj, ptr %obj.addr, align 8
  store i32 %type, ptr %type.addr, align 4
  %0 = load ptr, ptr %obj.addr, align 8
  %tobool = icmp ne ptr %0, null
  br i1 %tobool, label %land.lhs.true, label %if.else

land.lhs.true:                                    ; preds = %entry
  %1 = load ptr, ptr %obj.addr, align 8
  %call = call i32 @qobject_type(ptr noundef %1)
  %2 = load i32, ptr %type.addr, align 4
  %cmp = icmp eq i32 %call, %2
  br i1 %cmp, label %if.then, label %if.else

if.then:                                          ; preds = %land.lhs.true
  %3 = load ptr, ptr %obj.addr, align 8
  store ptr %3, ptr %retval, align 8
  br label %return

if.else:                                          ; preds = %land.lhs.true, %entry
  store ptr null, ptr %retval, align 8
  br label %return

return:                                           ; preds = %if.else, %if.then
  %4 = load ptr, ptr %retval, align 8
  ret ptr %4
}

; Function Attrs: nounwind sspstrong uwtable
define dso_local void @qapi_event_send_device_unplug_guest_error(ptr noundef %device, ptr noundef %path) #0 {
entry:
  %device.addr = alloca ptr, align 8
  %path.addr = alloca ptr, align 8
  %qmp = alloca ptr, align 8
  %obj = alloca ptr, align 8
  %v = alloca ptr, align 8
  %param = alloca %struct.q_obj_DEVICE_UNPLUG_GUEST_ERROR_arg, align 8
  %_obj2 = alloca ptr, align 8
  %tmp = alloca ptr, align 8
  %__mptr = alloca ptr, align 8
  %tmp10 = alloca ptr, align 8
  %_obj3 = alloca ptr, align 8
  %tmp11 = alloca ptr, align 8
  %__mptr14 = alloca ptr, align 8
  %tmp16 = alloca ptr, align 8
  store ptr %device, ptr %device.addr, align 8
  store ptr %path, ptr %path.addr, align 8
  %device1 = getelementptr inbounds %struct.q_obj_DEVICE_UNPLUG_GUEST_ERROR_arg, ptr %param, i32 0, i32 0
  %0 = load ptr, ptr %device.addr, align 8
  store ptr %0, ptr %device1, align 8
  %path2 = getelementptr inbounds %struct.q_obj_DEVICE_UNPLUG_GUEST_ERROR_arg, ptr %param, i32 0, i32 1
  %1 = load ptr, ptr %path.addr, align 8
  store ptr %1, ptr %path2, align 8
  %call = call ptr @qmp_event_build_dict(ptr noundef @.str.2)
  store ptr %call, ptr %qmp, align 8
  %call3 = call ptr @qobject_output_visitor_new_qmp(ptr noundef %obj)
  store ptr %call3, ptr %v, align 8
  %2 = load ptr, ptr %v, align 8
  %call4 = call zeroext i1 @visit_start_struct(ptr noundef %2, ptr noundef @.str.2, ptr noundef null, i64 noundef 0, ptr noundef @error_abort)
  %3 = load ptr, ptr %v, align 8
  %call5 = call zeroext i1 @visit_type_q_obj_DEVICE_UNPLUG_GUEST_ERROR_arg_members(ptr noundef %3, ptr noundef %param, ptr noundef @error_abort)
  %4 = load ptr, ptr %v, align 8
  %call6 = call zeroext i1 @visit_check_struct(ptr noundef %4, ptr noundef @error_abort)
  %5 = load ptr, ptr %v, align 8
  call void @visit_end_struct(ptr noundef %5, ptr noundef null)
  %6 = load ptr, ptr %v, align 8
  call void @visit_complete(ptr noundef %6, ptr noundef %obj)
  %7 = load ptr, ptr %obj, align 8
  %call7 = call ptr @qobject_check_type(ptr noundef %7, i32 noundef 4)
  %call8 = call i64 @qdict_size(ptr noundef %call7)
  %tobool = icmp ne i64 %call8, 0
  br i1 %tobool, label %if.then, label %if.else

if.then:                                          ; preds = %entry
  %8 = load ptr, ptr %qmp, align 8
  %9 = load ptr, ptr %obj, align 8
  call void @qdict_put_obj(ptr noundef %8, ptr noundef @.str.1, ptr noundef %9)
  br label %if.end

if.else:                                          ; preds = %entry
  %10 = load ptr, ptr %obj, align 8
  store ptr %10, ptr %_obj2, align 8
  %11 = load ptr, ptr %_obj2, align 8
  %tobool9 = icmp ne ptr %11, null
  br i1 %tobool9, label %cond.true, label %cond.false

cond.true:                                        ; preds = %if.else
  %12 = load ptr, ptr %_obj2, align 8
  %base = getelementptr inbounds %struct.QObject, ptr %12, i32 0, i32 0
  store ptr %base, ptr %__mptr, align 8
  %13 = load ptr, ptr %__mptr, align 8
  %add.ptr = getelementptr i8, ptr %13, i64 0
  store ptr %add.ptr, ptr %tmp10, align 8
  %14 = load ptr, ptr %tmp10, align 8
  br label %cond.end

cond.false:                                       ; preds = %if.else
  br label %cond.end

cond.end:                                         ; preds = %cond.false, %cond.true
  %cond = phi ptr [ %14, %cond.true ], [ null, %cond.false ]
  store ptr %cond, ptr %tmp, align 8
  %15 = load ptr, ptr %tmp, align 8
  call void @qobject_unref_impl(ptr noundef %15)
  br label %if.end

if.end:                                           ; preds = %cond.end, %if.then
  %16 = load ptr, ptr %qmp, align 8
  call void @qapi_event_emit(i32 noundef 45, ptr noundef %16)
  %17 = load ptr, ptr %v, align 8
  call void @visit_free(ptr noundef %17)
  %18 = load ptr, ptr %qmp, align 8
  store ptr %18, ptr %_obj3, align 8
  %19 = load ptr, ptr %_obj3, align 8
  %tobool12 = icmp ne ptr %19, null
  br i1 %tobool12, label %cond.true13, label %cond.false18

cond.true13:                                      ; preds = %if.end
  %20 = load ptr, ptr %_obj3, align 8
  %base15 = getelementptr inbounds %struct.QDict, ptr %20, i32 0, i32 0
  store ptr %base15, ptr %__mptr14, align 8
  %21 = load ptr, ptr %__mptr14, align 8
  %add.ptr17 = getelementptr i8, ptr %21, i64 0
  store ptr %add.ptr17, ptr %tmp16, align 8
  %22 = load ptr, ptr %tmp16, align 8
  br label %cond.end19

cond.false18:                                     ; preds = %if.end
  br label %cond.end19

cond.end19:                                       ; preds = %cond.false18, %cond.true13
  %cond20 = phi ptr [ %22, %cond.true13 ], [ null, %cond.false18 ]
  store ptr %cond20, ptr %tmp11, align 8
  %23 = load ptr, ptr %tmp11, align 8
  call void @qobject_unref_impl(ptr noundef %23)
  ret void
}